; Function Attrs: nounwind uwtable
define internal fastcc zeroext i1 @socks_proxy_info_matches(ptr noundef readonly captures(none) %0, ptr noundef readonly captures(none) %1) unnamed_addr #0 {
  %3 = getelementptr inbounds nuw i8, ptr %0, i64 36
  %4 = load i8, ptr %3, align 4, !tbaa !303
  %5 = getelementptr inbounds nuw i8, ptr %1, i64 36
  %6 = load i8, ptr %5, align 4, !tbaa !303
  %7 = icmp eq i8 %4, %6
  br i1 %7, label %8, label %proxy_info_matches.exit

8:                                                ; preds = %2
  %9 = getelementptr inbounds nuw i8, ptr %0, i64 32
  %10 = load i32, ptr %9, align 8, !tbaa !307
  %11 = getelementptr inbounds nuw i8, ptr %1, i64 32
  %12 = load i32, ptr %11, align 8, !tbaa !307
  %13 = icmp eq i32 %10, %12
  br i1 %13, label %14, label %proxy_info_matches.exit

14:                                               ; preds = %8
  %15 = getelementptr inbounds nuw i8, ptr %0, i64 16
  %16 = load ptr, ptr %15, align 8, !tbaa !309
  %17 = getelementptr inbounds nuw i8, ptr %1, i64 16
  %18 = load ptr, ptr %17, align 8, !tbaa !309
  %19 = tail call i32 @curl_strequal(ptr noundef %16, ptr noundef %18) #11
  %.not.i = icmp eq i32 %19, 0
  br i1 %.not.i, label %proxy_info_matches.exit, label %20

20:                                               ; preds = %14
  %21 = getelementptr inbounds nuw i8, ptr %0, i64 40
  %22 = load ptr, ptr %21, align 8, !tbaa !304
  %23 = getelementptr inbounds nuw i8, ptr %1, i64 40
  %24 = load ptr, ptr %23, align 8, !tbaa !304
  %25 = tail call i32 @Curl_timestrcmp(ptr noundef %22, ptr noundef %24) #11
  %.not = icmp eq i32 %25, 0
  br i1 %.not, label %26, label %proxy_info_matches.exit

26:                                               ; preds = %20
  %27 = getelementptr inbounds nuw i8, ptr %0, i64 48
  %28 = load ptr, ptr %27, align 8, !tbaa !305
  %29 = getelementptr inbounds nuw i8, ptr %1, i64 48
  %30 = load ptr, ptr %29, align 8, !tbaa !305
  %31 = tail call i32 @Curl_timestrcmp(ptr noundef %28, ptr noundef %30) #11
  %.not7 = icmp eq i32 %31, 0
  br label %proxy_info_matches.exit

proxy_info_matches.exit:                          ; preds = %14, %8, %2, %26, %20
  %.0 = phi i1 [ false, %20 ], [ %.not7, %26 ], [ false, %2 ], [ false, %8 ], [ false, %14 ]
  ret i1 %.0
}